(dp0
S'r4'
p1
(lp2
S'192.168.3.12'
p3
aS'192.168.6.1'
p4
aS'192.168.5.12'
p5
asS'r1'
p6
(lp7
S'192.168.1.12'
p8
aS'192.168.2.1'
p9
aS'192.168.4.1'
p10
asS'r2'
p11
(lp12
S'192.168.2.12'
p13
aS'192.168.3.1'
p14
asS'r3'
p15
(lp16
S'192.168.4.12'
p17
aS'192.168.5.1'
p18
asS'h2'
p19
(lp20
S'192.168.6.12'
p21
asS'h1'
p22
(lp23
S'192.168.1.1'
p24
as.